target datalayout = "e-m:e-p270:32:32-p271:32:32-p272:64:64-i64:64-i128:128-f80:128-n8:16:32:64-S128"
target triple = "x86_64-pc-linux-gnu"

%struct.acn_dmp_adt_type = type { i8, i32, i32, i32, i32, i32 }

@hf_acn_dmp_adt_a = internal global i32 0, align 4
@hf_acn_dmp_adt_d = internal global i32 0, align 4
@hf_acn_dmp_adt_r = internal global i32 0, align 4
@hf_acn_dmp_adt_v = internal global i32 0, align 4
@hf_acn_dmp_adt_x = internal global i32 0, align 4
@ett_acn_address_type = internal global i32 0, align 4
@.str.752 = private unnamed_addr constant [15 x i8] c"not valid (%d)\00", align 1
@.str.760 = private unnamed_addr constant [26 x i8] c"Address and Data Type: %s\00", align 1

; Function Attrs: null_pointer_is_valid sspstrong uwtable
define internal i32 @acn_add_dmp_address_type(ptr noundef %0, ptr noundef %1, ptr noundef %2, i32 noundef %3, ptr noundef %4) #0 {
  %6 = alloca ptr, align 8
  %7 = alloca ptr, align 8
  %8 = alloca ptr, align 8
  %9 = alloca i32, align 4
  %10 = alloca ptr, align 8
  %11 = alloca ptr, align 8
  %12 = alloca i8, align 1
  %13 = alloca ptr, align 8
  store ptr %0, ptr %6, align 8
  store ptr %1, ptr %7, align 8
  store ptr %2, ptr %8, align 8
  store i32 %3, ptr %9, align 4
  store ptr %4, ptr %10, align 8
  call void @llvm.lifetime.start.p0(i64 8, ptr %11) #7
  call void @llvm.lifetime.start.p0(i64 1, ptr %12) #7
  call void @llvm.lifetime.start.p0(i64 8, ptr %13) #7
  %14 = load ptr, ptr %6, align 8
  %15 = load i32, ptr %9, align 4
  %16 = call zeroext i8 @tvb_get_uint8(ptr noundef %14, i32 noundef %15)
  %17 = load ptr, ptr %10, align 8
  %18 = getelementptr inbounds nuw %struct.acn_dmp_adt_type, ptr %17, i32 0, i32 0
  store i8 %16, ptr %18, align 4
  %19 = load ptr, ptr %10, align 8
  %20 = getelementptr inbounds nuw %struct.acn_dmp_adt_type, ptr %19, i32 0, i32 0
  %21 = load i8, ptr %20, align 4
  %22 = zext i8 %21 to i32
  %23 = and i32 %22, 48
  %24 = ashr i32 %23, 4
  %25 = trunc i32 %24 to i8
  store i8 %25, ptr %12, align 1
  %26 = load i8, ptr %12, align 1
  %27 = zext i8 %26 to i32
  %28 = call ptr @val_to_str(i32 noundef %27, ptr noundef @acn_dmp_adt_d_vals, ptr noundef @.str.752)
  store ptr %28, ptr %13, align 8
  %29 = load ptr, ptr %8, align 8
  %30 = load ptr, ptr %6, align 8
  %31 = load i32, ptr %9, align 4
  %32 = load i32, ptr @ett_acn_address_type, align 4
  %33 = load ptr, ptr %13, align 8
  %34 = call ptr (ptr, ptr, i32, i32, i32, ptr, ptr, ...) @proto_tree_add_subtree_format(ptr noundef %29, ptr noundef %30, i32 noundef %31, i32 noundef 1, i32 noundef %32, ptr noundef null, ptr noundef @.str.760, ptr noundef %33)
  store ptr %34, ptr %11, align 8
  %35 = load ptr, ptr %11, align 8
  %36 = load i32, ptr @hf_acn_dmp_adt_v, align 4
  %37 = load ptr, ptr %6, align 8
  %38 = load i32, ptr %9, align 4
  %39 = load ptr, ptr %10, align 8
  %40 = getelementptr inbounds nuw %struct.acn_dmp_adt_type, ptr %39, i32 0, i32 0
  %41 = load i8, ptr %40, align 4
  %42 = zext i8 %41 to i32
  %43 = call ptr @proto_tree_add_uint(ptr noundef %35, i32 noundef %36, ptr noundef %37, i32 noundef %38, i32 noundef 1, i32 noundef %42)
  %44 = load ptr, ptr %11, align 8
  %45 = load i32, ptr @hf_acn_dmp_adt_r, align 4
  %46 = load ptr, ptr %6, align 8
  %47 = load i32, ptr %9, align 4
  %48 = load ptr, ptr %10, align 8
  %49 = getelementptr inbounds nuw %struct.acn_dmp_adt_type, ptr %48, i32 0, i32 0
  %50 = load i8, ptr %49, align 4
  %51 = zext i8 %50 to i32
  %52 = call ptr @proto_tree_add_uint(ptr noundef %44, i32 noundef %45, ptr noundef %46, i32 noundef %47, i32 noundef 1, i32 noundef %51)
  %53 = load ptr, ptr %11, align 8
  %54 = load i32, ptr @hf_acn_dmp_adt_d, align 4
  %55 = load ptr, ptr %6, align 8
  %56 = load i32, ptr %9, align 4
  %57 = load ptr, ptr %10, align 8
  %58 = getelementptr inbounds nuw %struct.acn_dmp_adt_type, ptr %57, i32 0, i32 0
  %59 = load i8, ptr %58, align 4
  %60 = zext i8 %59 to i32
  %61 = call ptr @proto_tree_add_uint(ptr noundef %53, i32 noundef %54, ptr noundef %55, i32 noundef %56, i32 noundef 1, i32 noundef %60)
  %62 = load ptr, ptr %11, align 8
  %63 = load i32, ptr @hf_acn_dmp_adt_x, align 4
  %64 = load ptr, ptr %6, align 8
  %65 = load i32, ptr %9, align 4
  %66 = load ptr, ptr %10, align 8
  %67 = getelementptr inbounds nuw %struct.acn_dmp_adt_type, ptr %66, i32 0, i32 0
  %68 = load i8, ptr %67, align 4
  %69 = zext i8 %68 to i32
  %70 = call ptr @proto_tree_add_uint(ptr noundef %62, i32 noundef %63, ptr noundef %64, i32 noundef %65, i32 noundef 1, i32 noundef %69)
  %71 = load ptr, ptr %11, align 8
  %72 = load i32, ptr @hf_acn_dmp_adt_a, align 4
  %73 = load ptr, ptr %6, align 8
  %74 = load i32, ptr %9, align 4
  %75 = load ptr, ptr %10, align 8
  %76 = getelementptr inbounds nuw %struct.acn_dmp_adt_type, ptr %75, i32 0, i32 0
  %77 = load i8, ptr %76, align 4
  %78 = zext i8 %77 to i32
  %79 = call ptr @proto_tree_add_uint(ptr noundef %71, i32 noundef %72, ptr noundef %73, i32 noundef %74, i32 noundef 1, i32 noundef %78)
  %80 = load i32, ptr %9, align 4
  %81 = add i32 %80, 1
  store i32 %81, ptr %9, align 4
  %82 = load i32, ptr %9, align 4
  call void @llvm.lifetime.end.p0(i64 8, ptr %13) #7
  call void @llvm.lifetime.end.p0(i64 1, ptr %12) #7
  call void @llvm.lifetime.end.p0(i64 8, ptr %11) #7
  ret i32 %82
}