; Function Attrs: null_pointer_is_valid sspstrong uwtable
define internal fastcc noundef i32 @acn_add_dmp_address_type(ptr noundef %0, ptr noundef %1, i32 noundef %2, ptr noundef captures(none) initializes((0, 1)) %3) unnamed_addr #0 {
  %5 = tail call zeroext i8 @tvb_get_uint8(ptr noundef %0, i32 noundef %2)
  store i8 %5, ptr %3, align 4
  %6 = lshr i8 %5, 4
  %7 = and i8 %6, 3
  %8 = zext nneg i8 %7 to i32
  %9 = tail call ptr @val_to_str(i32 noundef %8, ptr noundef nonnull @acn_dmp_adt_d_vals, ptr noundef nonnull @.str.752)
  %10 = load i32, ptr @ett_acn_address_type, align 4
  %11 = tail call ptr (ptr, ptr, i32, i32, i32, ptr, ptr, ...) @proto_tree_add_subtree_format(ptr noundef %1, ptr noundef %0, i32 noundef %2, i32 noundef 1, i32 noundef %10, ptr noundef null, ptr noundef nonnull @.str.760, ptr noundef %9)
  %12 = load i32, ptr @hf_acn_dmp_adt_v, align 4
  %13 = load i8, ptr %3, align 4
  %14 = zext i8 %13 to i32
  %15 = tail call ptr @proto_tree_add_uint(ptr noundef %11, i32 noundef %12, ptr noundef %0, i32 noundef %2, i32 noundef 1, i32 noundef %14)
  %16 = load i32, ptr @hf_acn_dmp_adt_r, align 4
  %17 = load i8, ptr %3, align 4
  %18 = zext i8 %17 to i32
  %19 = tail call ptr @proto_tree_add_uint(ptr noundef %11, i32 noundef %16, ptr noundef %0, i32 noundef %2, i32 noundef 1, i32 noundef %18)
  %20 = load i32, ptr @hf_acn_dmp_adt_d, align 4
  %21 = load i8, ptr %3, align 4
  %22 = zext i8 %21 to i32
  %23 = tail call ptr @proto_tree_add_uint(ptr noundef %11, i32 noundef %20, ptr noundef %0, i32 noundef %2, i32 noundef 1, i32 noundef %22)
  %24 = load i32, ptr @hf_acn_dmp_adt_x, align 4
  %25 = load i8, ptr %3, align 4
  %26 = zext i8 %25 to i32
  %27 = tail call ptr @proto_tree_add_uint(ptr noundef %11, i32 noundef %24, ptr noundef %0, i32 noundef %2, i32 noundef 1, i32 noundef %26)
  %28 = load i32, ptr @hf_acn_dmp_adt_a, align 4
  %29 = load i8, ptr %3, align 4
  %30 = zext i8 %29 to i32
  %31 = tail call ptr @proto_tree_add_uint(ptr noundef %11, i32 noundef %28, ptr noundef %0, i32 noundef %2, i32 noundef 1, i32 noundef %30)
  %32 = add i32 %2, 1
  ret i32 %32
}